((lp0
(F0.10654482276461874
S'i'
p1
tp2
a(F0.7951830686039428
g1
tp3
a(F0.2357283660693721
S'n'
p4
tp5
a(F0.33883088308383047
g4
tp6
a(F0.5394937678031165
g4
tp7
a(F0.24268010789756667
g4
tp8
a(F0.9825103304762868
S'o'
p9
tp10
a(lp11
(I0
I3
F-0.4248050419288456
tp12
a(I1
I5
F-0.3761725925493873
tp13
a(I1
I5
F0.8789730561792313
tp14
a(I2
I2
F0.42509538153865134
tp15
a(I2
I5
F-0.9183530238534681
tp16
a(I3
I6
F0.9445157919730018
tp17
a(I4
I1
F0.8156860856976251
tp18
a(I5
I3
F0.8255550474807565
tp19
a(I6
I4
F-0.8588420577172229
tp20
a(I6
I4
F0.5753883872908994
tp21
atp22
.