((lp0
(F0.771105429295747
S'i'
p1
tp2
a(F0.4525213726056765
g1
tp3
a(F0.2836112625768763
S'n'
p4
tp5
a(F0.7491631070564179
g4
tp6
a(F0.03998236495024421
g4
tp7
a(F0.7341234765662995
g4
tp8
a(F0.8157263929732069
S'o'
p9
tp10
a(lp11
(I0
I2
F-0.23647037963177353
tp12
a(I0
I4
F-0.2842974058795664
tp13
a(I1
I1
F-0.6491735527184705
tp14
a(I1
I2
F-0.9845509305815514
tp15
a(I1
I6
F0.9519148167851341
tp16
a(I2
I2
F0.03212756993249277
tp17
a(I2
I2
F-0.28279428567079967
tp18
a(I3
I0
F-0.2864860238348448
tp19
a(I3
I4
F0.8073818613852157
tp20
a(I4
I0
F0.8728253247794009
tp21
a(I4
I3
F-0.13967719598704176
tp22
a(I4
I3
F-0.7394470981628185
tp23
a(I5
I4
F-0.029541099591544162
tp24
a(I6
I4
F0.024131232600320907
tp25
atp26
.